target datalayout = "e-m:e-p270:32:32-p271:32:32-p272:64:64-i64:64-i128:128-f80:128-n8:16:32:64-S128"
target triple = "x86_64-unknown-linux-gnu"

%"class.std::__shared_count" = type { ptr }
%"class.OpenColorIO_v2_4dev::DynamicProperty" = type { ptr }
%"class.OpenColorIO_v2_4dev::DynamicPropertyImpl.base" = type <{ %"class.OpenColorIO_v2_4dev::DynamicProperty", i32, i8 }>
%"class.OpenColorIO_v2_4dev::DynamicPropertyGradingRGBCurveImpl" = type { %"class.OpenColorIO_v2_4dev::DynamicPropertyImpl.base", %"class.OpenColorIO_v2_4dev::DynamicPropertyGradingRGBCurve", %"class.std::shared_ptr.12", %"struct.OpenColorIO_v2_4dev::GradingBSplineCurveImpl::KnotsCoefs" }
%"class.OpenColorIO_v2_4dev::DynamicPropertyGradingRGBCurve" = type { ptr }
%"class.std::shared_ptr.12" = type { %"class.std::__shared_ptr.13" }
%"class.std::__shared_ptr.13" = type { ptr, %"class.std::__shared_count" }
%"struct.OpenColorIO_v2_4dev::GradingBSplineCurveImpl::KnotsCoefs" = type { i8, %"class.std::vector", %"class.std::vector", %"class.std::vector.21", %"class.std::vector.21" }
%"class.std::vector" = type { %"struct.std::_Vector_base" }
%"struct.std::_Vector_base" = type { %"struct.std::_Vector_base<int, std::allocator<int>>::_Vector_impl" }
%"struct.std::_Vector_base<int, std::allocator<int>>::_Vector_impl" = type { %"struct.std::_Vector_base<int, std::allocator<int>>::_Vector_impl_data" }
%"struct.std::_Vector_base<int, std::allocator<int>>::_Vector_impl_data" = type { ptr, ptr, ptr }
%"class.std::vector.21" = type { %"struct.std::_Vector_base.22" }
%"struct.std::_Vector_base.22" = type { %"struct.std::_Vector_base<float, std::allocator<float>>::_Vector_impl" }
%"struct.std::_Vector_base<float, std::allocator<float>>::_Vector_impl" = type { %"struct.std::_Vector_base<float, std::allocator<float>>::_Vector_impl_data" }
%"struct.std::_Vector_base<float, std::allocator<float>>::_Vector_impl_data" = type { ptr, ptr, ptr }

; Function Attrs: mustprogress nounwind uwtable
define linkonce_odr hidden noundef i64 @_ZNKSt6vectorIfSaIfEE4sizeEv(ptr noundef nonnull align 8 dereferenceable(24) %this) #1 comdat align 2 {
entry:
  %this.addr = alloca ptr, align 8
  store ptr %this, ptr %this.addr, align 8
  %this1 = load ptr, ptr %this.addr, align 8
  %_M_impl = getelementptr inbounds %"struct.std::_Vector_base.22", ptr %this1, i32 0, i32 0
  %_M_finish = getelementptr inbounds %"struct.std::_Vector_base<float, std::allocator<float>>::_Vector_impl_data", ptr %_M_impl, i32 0, i32 1
  %0 = load ptr, ptr %_M_finish, align 8
  %_M_impl2 = getelementptr inbounds %"struct.std::_Vector_base.22", ptr %this1, i32 0, i32 0
  %_M_start = getelementptr inbounds %"struct.std::_Vector_base<float, std::allocator<float>>::_Vector_impl_data", ptr %_M_impl2, i32 0, i32 0
  %1 = load ptr, ptr %_M_start, align 8
  %sub.ptr.lhs.cast = ptrtoint ptr %0 to i64
  %sub.ptr.rhs.cast = ptrtoint ptr %1 to i64
  %sub.ptr.sub = sub i64 %sub.ptr.lhs.cast, %sub.ptr.rhs.cast
  %sub.ptr.div = sdiv exact i64 %sub.ptr.sub, 4
  ret i64 %sub.ptr.div
}

; Function Attrs: mustprogress nounwind uwtable
define hidden noundef i32 @_ZNK19OpenColorIO_v2_4dev34DynamicPropertyGradingRGBCurveImpl11getNumCoefsEv(ptr noundef nonnull align 8 dereferenceable(144) %this) #1 align 2 {
entry:
  %this.addr = alloca ptr, align 8
  store ptr %this, ptr %this.addr, align 8
  %this1 = load ptr, ptr %this.addr, align 8
  %m_knotsCoefs = getelementptr inbounds %"class.OpenColorIO_v2_4dev::DynamicPropertyGradingRGBCurveImpl", ptr %this1, i32 0, i32 3
  %m_coefsArray = getelementptr inbounds %"struct.OpenColorIO_v2_4dev::GradingBSplineCurveImpl::KnotsCoefs", ptr %m_knotsCoefs, i32 0, i32 3
  %call = call noundef i64 @_ZNKSt6vectorIfSaIfEE4sizeEv(ptr noundef nonnull align 8 dereferenceable(24) %m_coefsArray) #13
  %conv = trunc i64 %call to i32
  ret i32 %conv
}